; Function Attrs: nounwind uwtable
define dso_local range(i64 0, 2) i64 @network_subeq(ptr noundef readonly captures(none) %0) local_unnamed_addr #0 {
  %2 = getelementptr inbounds nuw i8, ptr %0, i64 32
  %3 = load i64, ptr %2, align 8
  %4 = inttoptr i64 %3 to ptr
  %5 = tail call ptr @pg_detoast_datum_packed(ptr noundef %4) #14
  %6 = getelementptr inbounds nuw i8, ptr %0, i64 48
  %7 = load i64, ptr %6, align 8
  %8 = inttoptr i64 %7 to ptr
  %9 = tail call ptr @pg_detoast_datum_packed(ptr noundef %8) #14
  %10 = load i8, ptr %5, align 1
  %11 = and i8 %10, 1
  %.not = icmp eq i8 %11, 0
  %.v = select i1 %.not, i64 4, i64 1
  %12 = getelementptr inbounds nuw i8, ptr %5, i64 %.v
  %13 = load i8, ptr %12, align 1
  %14 = load i8, ptr %9, align 1
  %15 = and i8 %14, 1
  %.not24 = icmp eq i8 %15, 0
  %.v25 = select i1 %.not24, i64 4, i64 1
  %16 = getelementptr inbounds nuw i8, ptr %9, i64 %.v25
  %17 = load i8, ptr %16, align 1
  %18 = icmp eq i8 %13, %17
  br i1 %18, label %19, label %bitncmp.exit

19:                                               ; preds = %1
  %20 = getelementptr inbounds nuw i8, ptr %12, i64 1
  %21 = load i8, ptr %20, align 1
  %22 = getelementptr inbounds nuw i8, ptr %16, i64 1
  %23 = load i8, ptr %22, align 1
  %.not26 = icmp ult i8 %21, %23
  br i1 %.not26, label %bitncmp.exit, label %24

24:                                               ; preds = %19
  %25 = getelementptr inbounds nuw i8, ptr %12, i64 2
  %26 = getelementptr inbounds nuw i8, ptr %16, i64 2
  %27 = lshr i8 %23, 3
  %28 = zext nneg i8 %27 to i64
  %bcmp = tail call i32 @bcmp(ptr nonnull %25, ptr nonnull %26, i64 %28)
  %.not.i = icmp eq i32 %bcmp, 0
  br i1 %.not.i, label %29, label %bitncmp.exit

29:                                               ; preds = %24
  %30 = and i8 %23, 7
  %.not29 = icmp eq i8 %30, 0
  br i1 %.not29, label %bitncmp.exit, label %.lr.ph.preheader.i

.lr.ph.preheader.i:                               ; preds = %29
  %.zext28 = zext nneg i8 %30 to i32
  %31 = getelementptr inbounds nuw i8, ptr %26, i64 %28
  %32 = load i8, ptr %31, align 1
  %33 = zext i8 %32 to i32
  %34 = getelementptr inbounds nuw i8, ptr %25, i64 %28
  %35 = load i8, ptr %34, align 1
  %36 = zext i8 %35 to i32
  br label %.lr.ph.i

.lr.ph.i:                                         ; preds = %39, %.lr.ph.preheader.i
  %.028.i = phi i32 [ %42, %39 ], [ %.zext28, %.lr.ph.preheader.i ]
  %.02027.i = phi i32 [ %41, %39 ], [ %33, %.lr.ph.preheader.i ]
  %.02126.i = phi i32 [ %40, %39 ], [ %36, %.lr.ph.preheader.i ]
  %37 = xor i32 %.02126.i, %.02027.i
  %38 = and i32 %37, 128
  %.not24.i = icmp eq i32 %38, 0
  br i1 %.not24.i, label %39, label %bitncmp.exit

39:                                               ; preds = %.lr.ph.i
  %40 = shl i32 %.02126.i, 1
  %41 = shl i32 %.02027.i, 1
  %42 = add nsw i32 %.028.i, -1
  %43 = icmp sgt i32 %.028.i, 1
  br i1 %43, label %.lr.ph.i, label %bitncmp.exit, !llvm.loop !23

bitncmp.exit:                                     ; preds = %.lr.ph.i, %39, %19, %24, %29, %1
  %.0 = phi i64 [ 0, %1 ], [ 0, %19 ], [ 1, %29 ], [ 0, %24 ], [ 0, %.lr.ph.i ], [ 1, %39 ]
  ret i64 %.0
}